; Function Attrs: mustprogress nofree norecurse nosync nounwind willreturn memory(read, inaccessiblemem: none) uwtable
define dso_local { ptr, i32 } @_ZNK4llvm3rdf8CodeNode14getFirstMemberERKNS0_13DataFlowGraphE(ptr noundef nonnull readonly align 8 captures(none) dereferenceable(32) %0, ptr noundef nonnull readonly align 8 captures(none) dereferenceable(736) %1) local_unnamed_addr #3 align 2 {
  %3 = getelementptr inbounds nuw i8, ptr %0, i64 16
  %4 = load i32, ptr %3, align 8
  %5 = icmp eq i32 %4, 0
  br i1 %5, label %21, label %_ZNK4llvm3rdf13DataFlowGraph4addrIPNS0_8NodeBaseEEENS0_8NodeAddrIT_EEj.exit

_ZNK4llvm3rdf13DataFlowGraph4addrIPNS0_8NodeBaseEEENS0_8NodeAddrIT_EEj.exit: ; preds = %2
  %6 = add i32 %4, -1
  %7 = getelementptr inbounds nuw i8, ptr %1, i64 284
  %8 = load i32, ptr %7, align 4
  %9 = lshr i32 %6, %8
  %10 = getelementptr inbounds nuw i8, ptr %1, i64 288
  %11 = load i32, ptr %10, align 8
  %12 = and i32 %11, %6
  %13 = shl i32 %12, 5
  %14 = getelementptr inbounds nuw i8, ptr %1, i64 304
  %15 = zext i32 %9 to i64
  %16 = load ptr, ptr %14, align 8
  %17 = getelementptr inbounds nuw ptr, ptr %16, i64 %15
  %18 = load ptr, ptr %17, align 8
  %19 = zext i32 %13 to i64
  %20 = getelementptr inbounds nuw i8, ptr %18, i64 %19
  br label %21

21:                                               ; preds = %2, %_ZNK4llvm3rdf13DataFlowGraph4addrIPNS0_8NodeBaseEEENS0_8NodeAddrIT_EEj.exit
  %.sroa.0.0 = phi ptr [ %20, %_ZNK4llvm3rdf13DataFlowGraph4addrIPNS0_8NodeBaseEEENS0_8NodeAddrIT_EEj.exit ], [ null, %2 ]
  %.fca.0.insert = insertvalue { ptr, i32 } poison, ptr %.sroa.0.0, 0
  %.fca.1.insert = insertvalue { ptr, i32 } %.fca.0.insert, i32 %4, 1
  ret { ptr, i32 } %.fca.1.insert
}